	.file	"Num.c"
	.intel_syntax noprefix
# GNU C11 (Ubuntu 7.5.0-3ubuntu1~18.04) version 7.5.0 (x86_64-linux-gnu)
#	compiled by GNU C version 7.5.0, GMP version 6.1.2, MPFR version 4.0.1, MPC version 1.1.0, isl version isl-0.19-GMP

# GGC heuristics: --param ggc-min-expand=100 --param ggc-min-heapsize=131072
# options passed:  -imultilib 32 -imultiarch i386-linux-gnu Num.c -m32
# -masm=intel -mtune=generic -march=i686 -auxbase-strip Num.s -g -Wall
# -fverbose-asm -fstack-protector-strong -Wformat-security
# options enabled:  -fPIC -fPIE -faggressive-loop-optimizations
# -fasynchronous-unwind-tables -fauto-inc-dec -fchkp-check-incomplete-type
# -fchkp-check-read -fchkp-check-write -fchkp-instrument-calls
# -fchkp-narrow-bounds -fchkp-optimize -fchkp-store-bounds
# -fchkp-use-static-bounds -fchkp-use-static-const-bounds
# -fchkp-use-wrappers -fcommon -fdelete-null-pointer-checks
# -fdwarf2-cfi-asm -fearly-inlining -feliminate-unused-debug-types
# -ffp-int-builtin-inexact -ffunction-cse -fgcse-lm -fgnu-runtime
# -fgnu-unique -fident -finline-atomics -fira-hoist-pressure
# -fira-share-save-slots -fira-share-spill-slots -fivopts
# -fkeep-static-consts -fleading-underscore -flifetime-dse
# -flto-odr-type-merging -fmath-errno -fmerge-debug-strings
# -fpcc-struct-return -fpeephole -fplt -fprefetch-loop-arrays
# -fsched-critical-path-heuristic -fsched-dep-count-heuristic
# -fsched-group-heuristic -fsched-interblock -fsched-last-insn-heuristic
# -fsched-rank-heuristic -fsched-spec -fsched-spec-insn-heuristic
# -fsched-stalled-insns-dep -fschedule-fusion -fsemantic-interposition
# -fshow-column -fshrink-wrap-separate -fsigned-zeros
# -fsplit-ivs-in-unroller -fssa-backprop -fstack-protector-strong
# -fstdarg-opt -fstrict-volatile-bitfields -fsync-libcalls -ftrapping-math
# -ftree-cselim -ftree-forwprop -ftree-loop-if-convert -ftree-loop-im
# -ftree-loop-ivcanon -ftree-loop-optimize -ftree-parallelize-loops=
# -ftree-phiprop -ftree-reassoc -ftree-scev-cprop -funit-at-a-time
# -funwind-tables -fverbose-asm -fzero-initialized-in-bss -m32 -m80387
# -m96bit-long-double -malign-stringops -mavx256-split-unaligned-load
# -mavx256-split-unaligned-store -mfancy-math-387 -mfp-ret-in-387 -mglibc
# -mieee-fp -mlong-double-80 -mno-red-zone -mno-sse4 -mpush-args -msahf
# -mstv -mtls-direct-seg-refs -mvzeroupper

	.text
.Ltext0:
	.section	.rodata
.LC0:
	.string	"Insert a number:"
.LC1:
	.string	"Counter is 10."
.LC2:
	.string	"Counter is not 10."
	.text
	.globl	main
	.type	main, @function
main:
.LFB5:
	.file 1 "Num.c"
	.loc 1 7 0
	.cfi_startproc
	lea	ecx, 4[esp]	#,
	.cfi_def_cfa 1, 0
	and	esp, -16	#,
	push	DWORD PTR -4[ecx]	#
	push	ebp	#
	.cfi_escape 0x10,0x5,0x2,0x75,0
	mov	ebp, esp	#,
	push	ebx	#
	push	ecx	#
	.cfi_escape 0xf,0x3,0x75,0x78,0x6
	.cfi_escape 0x10,0x3,0x2,0x75,0x7c
	sub	esp, 32	#,
	call	__x86.get_pc_thunk.bx	#
	add	ebx, OFFSET FLAT:_GLOBAL_OFFSET_TABLE_	# tmp87,
	mov	eax, ecx	# tmp100,
	mov	eax, DWORD PTR 4[eax]	# tmp91, argv
	mov	DWORD PTR -28[ebp], eax	# argv, tmp91
# Num.c:7: {
	.loc 1 7 0
	mov	eax, DWORD PTR gs:20	# tmp101,
	mov	DWORD PTR -12[ebp], eax	# D.2394, tmp101
	xor	eax, eax	# tmp101
# Num.c:11: 	printf ("Insert a number:");
	.loc 1 11 0
	sub	esp, 12	#,
	lea	eax, .LC0@GOTOFF[ebx]	# tmp92,
	push	eax	# tmp92
	call	printf@PLT	#
	add	esp, 16	#,
# Num.c:12: 	fgets (buf, SIZE_OF_BUFF, stdin);
	.loc 1 12 0
	mov	eax, DWORD PTR stdin@GOT[ebx]	# tmp93,
	mov	eax, DWORD PTR [eax]	# stdin.0_1, stdin
	sub	esp, 4	#,
	push	eax	# stdin.0_1
	push	5	#
	lea	eax, -17[ebp]	# tmp94,
	push	eax	# tmp94
	call	fgets@PLT	#
	add	esp, 16	#,
# Num.c:14: 	count = atoi (buf);
	.loc 1 14 0
	sub	esp, 12	#,
	lea	eax, -17[ebp]	# tmp95,
	push	eax	# tmp95
	call	atoi@PLT	#
	add	esp, 16	#,
	mov	DWORD PTR -24[ebp], eax	# count, tmp96
# Num.c:16: 	if (count == 10)
	.loc 1 16 0
	cmp	DWORD PTR -24[ebp], 10	# count,
	jne	.L2	#,
# Num.c:18: 		printf ("Counter is 10.\n");
	.loc 1 18 0
	sub	esp, 12	#,
	lea	eax, .LC1@GOTOFF[ebx]	# tmp97,
	push	eax	# tmp97
	call	puts@PLT	#
	add	esp, 16	#,
	jmp	.L3	#
.L2:
# Num.c:22: 		printf ("Counter is not 10.\n");
	.loc 1 22 0
	sub	esp, 12	#,
	lea	eax, .LC2@GOTOFF[ebx]	# tmp98,
	push	eax	# tmp98
	call	puts@PLT	#
	add	esp, 16	#,
.L3:
# Num.c:25: 	return EXIT_SUCCESS;
	.loc 1 25 0
	mov	eax, 0	# _9,
# Num.c:26: }
	.loc 1 26 0
	mov	edx, DWORD PTR -12[ebp]	# tmp102, D.2394
	xor	edx, DWORD PTR gs:20	# tmp102,
	je	.L5	#,
	call	__stack_chk_fail_local	#
.L5:
	lea	esp, -8[ebp]	#,
	pop	ecx	#
	.cfi_restore 1
	.cfi_def_cfa 1, 0
	pop	ebx	#
	.cfi_restore 3
	pop	ebp	#
	.cfi_restore 5
	lea	esp, -4[ecx]	#,
	.cfi_def_cfa 4, 4
	ret
	.cfi_endproc
.LFE5:
	.size	main, .-main
	.section	.text.__x86.get_pc_thunk.bx,"axG",@progbits,__x86.get_pc_thunk.bx,comdat
	.globl	__x86.get_pc_thunk.bx
	.hidden	__x86.get_pc_thunk.bx
	.type	__x86.get_pc_thunk.bx, @function
__x86.get_pc_thunk.bx:
.LFB6:
	.cfi_startproc
	mov	ebx, DWORD PTR [esp]	#,
	ret
	.cfi_endproc
.LFE6:
	.text
.Letext0:
	.file 2 "/usr/lib/gcc/x86_64-linux-gnu/7/include/stddef.h"
	.file 3 "/usr/include/bits/types.h"
	.file 4 "/usr/include/bits/libio.h"
	.file 5 "/usr/include/stdio.h"
	.file 6 "/usr/include/bits/sys_errlist.h"
	.section	.note.GNU-stack,"",@progbits
