	.file	"Exercise7.c"
	.intel_syntax noprefix
# GNU C11 (Ubuntu 7.5.0-3ubuntu1~18.04) version 7.5.0 (x86_64-linux-gnu)
#	compiled by GNU C version 7.5.0, GMP version 6.1.2, MPFR version 4.0.1, MPC version 1.1.0, isl version isl-0.19-GMP

# GGC heuristics: --param ggc-min-expand=100 --param ggc-min-heapsize=131072
# options passed:  -imultilib 32 -imultiarch i386-linux-gnu Exercise7.c
# -m32 -masm=intel -mtune=generic -march=i686 -auxbase-strip Exercise7.s -g
# -Wall -fverbose-asm -fstack-protector-strong -Wformat-security
# options enabled:  -fPIC -fPIE -faggressive-loop-optimizations
# -fasynchronous-unwind-tables -fauto-inc-dec -fchkp-check-incomplete-type
# -fchkp-check-read -fchkp-check-write -fchkp-instrument-calls
# -fchkp-narrow-bounds -fchkp-optimize -fchkp-store-bounds
# -fchkp-use-static-bounds -fchkp-use-static-const-bounds
# -fchkp-use-wrappers -fcommon -fdelete-null-pointer-checks
# -fdwarf2-cfi-asm -fearly-inlining -feliminate-unused-debug-types
# -ffp-int-builtin-inexact -ffunction-cse -fgcse-lm -fgnu-runtime
# -fgnu-unique -fident -finline-atomics -fira-hoist-pressure
# -fira-share-save-slots -fira-share-spill-slots -fivopts
# -fkeep-static-consts -fleading-underscore -flifetime-dse
# -flto-odr-type-merging -fmath-errno -fmerge-debug-strings
# -fpcc-struct-return -fpeephole -fplt -fprefetch-loop-arrays
# -fsched-critical-path-heuristic -fsched-dep-count-heuristic
# -fsched-group-heuristic -fsched-interblock -fsched-last-insn-heuristic
# -fsched-rank-heuristic -fsched-spec -fsched-spec-insn-heuristic
# -fsched-stalled-insns-dep -fschedule-fusion -fsemantic-interposition
# -fshow-column -fshrink-wrap-separate -fsigned-zeros
# -fsplit-ivs-in-unroller -fssa-backprop -fstack-protector-strong
# -fstdarg-opt -fstrict-volatile-bitfields -fsync-libcalls -ftrapping-math
# -ftree-cselim -ftree-forwprop -ftree-loop-if-convert -ftree-loop-im
# -ftree-loop-ivcanon -ftree-loop-optimize -ftree-parallelize-loops=
# -ftree-phiprop -ftree-reassoc -ftree-scev-cprop -funit-at-a-time
# -funwind-tables -fverbose-asm -fzero-initialized-in-bss -m32 -m80387
# -m96bit-long-double -malign-stringops -mavx256-split-unaligned-load
# -mavx256-split-unaligned-store -mfancy-math-387 -mfp-ret-in-387 -mglibc
# -mieee-fp -mlong-double-80 -mno-red-zone -mno-sse4 -mpush-args -msahf
# -mstv -mtls-direct-seg-refs -mvzeroupper

	.text
.Ltext0:
	.globl	doit
	.type	doit, @function
doit:
.LFB5:
	.file 1 "Exercise7.c"
	.loc 1 5 0
	.cfi_startproc
	push	ebp	#
	.cfi_def_cfa_offset 8
	.cfi_offset 5, -8
	mov	ebp, esp	#,
	.cfi_def_cfa_register 5
	sub	esp, 16	#,
	call	__x86.get_pc_thunk.ax	#
	add	eax, OFFSET FLAT:_GLOBAL_OFFSET_TABLE_	# tmp87,
# Exercise7.c:6:     int c = 20;
	.loc 1 6 0
	mov	DWORD PTR -8[ebp], 20	# c,
# Exercise7.c:7:     int addition = a + b;
	.loc 1 7 0
	mov	edx, DWORD PTR 8[ebp]	# tmp94, a
	mov	eax, DWORD PTR 12[ebp]	# tmp95, b
	add	eax, edx	# tmp93, tmp94
	mov	DWORD PTR -4[ebp], eax	# addition, tmp93
# Exercise7.c:9:     return (c * addition);
	.loc 1 9 0
	mov	eax, DWORD PTR -8[ebp]	# tmp96, c
	imul	eax, DWORD PTR -4[ebp]	# _5, addition
# Exercise7.c:10: }
	.loc 1 10 0
	leave
	.cfi_restore 5
	.cfi_def_cfa 4, 4
	ret
	.cfi_endproc
.LFE5:
	.size	doit, .-doit
	.section	.rodata
.LC0:
	.string	"Higher number required"
.LC1:
	.string	"DO NOT GET IT!"
.LC2:
	.string	"YOU HAVE GOT IT!"
	.text
	.globl	main
	.type	main, @function
main:
.LFB6:
	.loc 1 14 0
	.cfi_startproc
	lea	ecx, 4[esp]	#,
	.cfi_def_cfa 1, 0
	and	esp, -16	#,
	push	DWORD PTR -4[ecx]	#
	push	ebp	#
	.cfi_escape 0x10,0x5,0x2,0x75,0
	mov	ebp, esp	#,
	push	ebx	#
	push	ecx	#
	.cfi_escape 0xf,0x3,0x75,0x78,0x6
	.cfi_escape 0x10,0x3,0x2,0x75,0x7c
	sub	esp, 16	#,
	call	__x86.get_pc_thunk.bx	#
	add	ebx, OFFSET FLAT:_GLOBAL_OFFSET_TABLE_	# tmp87,
# Exercise7.c:15: 	int a = 1;
	.loc 1 15 0
	mov	DWORD PTR -16[ebp], 1	# a,
# Exercise7.c:16:     int b = 10;
	.loc 1 16 0
	mov	DWORD PTR -12[ebp], 10	# b,
# Exercise7.c:17:     int c = 0;
	.loc 1 17 0
	mov	DWORD PTR -20[ebp], 0	# c,
# Exercise7.c:19:     if (a <= b)
	.loc 1 19 0
	mov	eax, DWORD PTR -16[ebp]	# tmp90, a
	cmp	eax, DWORD PTR -12[ebp]	# tmp90, b
	jg	.L4	#,
# Exercise7.c:21:         c = doit (b, b);
	.loc 1 21 0
	push	DWORD PTR -12[ebp]	# b
	push	DWORD PTR -12[ebp]	# b
	call	doit	#
	add	esp, 8	#,
	mov	DWORD PTR -20[ebp], eax	# c, tmp91
	jmp	.L5	#
.L4:
# Exercise7.c:25:         puts ("Higher number required");
	.loc 1 25 0
	sub	esp, 12	#,
	lea	eax, .LC0@GOTOFF[ebx]	# tmp92,
	push	eax	# tmp92
	call	puts@PLT	#
	add	esp, 16	#,
.L5:
# Exercise7.c:28:     if (c <= 10000)
	.loc 1 28 0
	cmp	DWORD PTR -20[ebp], 10000	# c,
	jg	.L6	#,
# Exercise7.c:30:         puts ("DO NOT GET IT!");
	.loc 1 30 0
	sub	esp, 12	#,
	lea	eax, .LC1@GOTOFF[ebx]	# tmp93,
	push	eax	# tmp93
	call	puts@PLT	#
	add	esp, 16	#,
	jmp	.L7	#
.L6:
# Exercise7.c:34:         puts ("YOU HAVE GOT IT!");
	.loc 1 34 0
	sub	esp, 12	#,
	lea	eax, .LC2@GOTOFF[ebx]	# tmp94,
	push	eax	# tmp94
	call	puts@PLT	#
	add	esp, 16	#,
.L7:
# Exercise7.c:37: 	return EXIT_SUCCESS;
	.loc 1 37 0
	mov	eax, 0	# _13,
# Exercise7.c:38: }
	.loc 1 38 0
	lea	esp, -8[ebp]	#,
	pop	ecx	#
	.cfi_restore 1
	.cfi_def_cfa 1, 0
	pop	ebx	#
	.cfi_restore 3
	pop	ebp	#
	.cfi_restore 5
	lea	esp, -4[ecx]	#,
	.cfi_def_cfa 4, 4
	ret
	.cfi_endproc
.LFE6:
	.size	main, .-main
	.section	.text.__x86.get_pc_thunk.ax,"axG",@progbits,__x86.get_pc_thunk.ax,comdat
	.globl	__x86.get_pc_thunk.ax
	.hidden	__x86.get_pc_thunk.ax
	.type	__x86.get_pc_thunk.ax, @function
__x86.get_pc_thunk.ax:
.LFB7:
	.cfi_startproc
	mov	eax, DWORD PTR [esp]	#,
	ret
	.cfi_endproc
.LFE7:
	.section	.text.__x86.get_pc_thunk.bx,"axG",@progbits,__x86.get_pc_thunk.bx,comdat
	.globl	__x86.get_pc_thunk.bx
	.hidden	__x86.get_pc_thunk.bx
	.type	__x86.get_pc_thunk.bx, @function
__x86.get_pc_thunk.bx:
.LFB8:
	.cfi_startproc
	mov	ebx, DWORD PTR [esp]	#,
	ret
	.cfi_endproc
.LFE8:
	.text
.Letext0:
	.file 2 "/usr/lib/gcc/x86_64-linux-gnu/7/include/stddef.h"
	.file 3 "/usr/include/bits/types.h"
	.file 4 "/usr/include/bits/libio.h"
	.file 5 "/usr/include/stdio.h"
	.file 6 "/usr/include/bits/sys_errlist.h"
	.section	.note.GNU-stack,"",@progbits
